target datalayout = "e-m:e-p270:32:32-p271:32:32-p272:64:64-i64:64-i128:128-f80:128-n8:16:32:64-S128"
target triple = "x86_64-pc-linux-gnu"

%struct.pmix_tma = type { ptr, ptr, ptr, ptr, ptr, ptr, ptr, ptr }

; Function Attrs: inlinehint nounwind uwtable
define internal void @pmix_tma_free(ptr noundef %0, ptr noundef %1) #1 {
  %3 = alloca ptr, align 8
  %4 = alloca ptr, align 8
  store ptr %0, ptr %3, align 8, !tbaa !8
  store ptr %1, ptr %4, align 8, !tbaa !51
  %5 = load ptr, ptr %3, align 8, !tbaa !8
  %6 = icmp ne ptr null, %5
  br i1 %6, label %7, label %13

7:                                                ; preds = %2
  %8 = load ptr, ptr %3, align 8, !tbaa !8
  %9 = getelementptr inbounds nuw %struct.pmix_tma, ptr %8, i32 0, i32 5
  %10 = load ptr, ptr %9, align 8, !tbaa !229
  %11 = load ptr, ptr %3, align 8, !tbaa !8
  %12 = load ptr, ptr %4, align 8, !tbaa !51
  call void %10(ptr noundef %11, ptr noundef %12)
  br label %15

13:                                               ; preds = %2
  %14 = load ptr, ptr %4, align 8, !tbaa !51
  call void @free(ptr noundef %14) #15
  br label %15

15:                                               ; preds = %13, %7
  ret void
}

; Function Attrs: inlinehint nounwind uwtable
define internal ptr @pmix_tma_strdup(ptr noundef %0, ptr noundef %1) #1 {
  %3 = alloca ptr, align 8
  %4 = alloca ptr, align 8
  %5 = alloca ptr, align 8
  store ptr %0, ptr %4, align 8, !tbaa !8
  store ptr %1, ptr %5, align 8, !tbaa !3
  %6 = load ptr, ptr %4, align 8, !tbaa !8
  %7 = icmp ne ptr null, %6
  br i1 %7, label %8, label %15

8:                                                ; preds = %2
  %9 = load ptr, ptr %4, align 8, !tbaa !8
  %10 = getelementptr inbounds nuw %struct.pmix_tma, ptr %9, i32 0, i32 3
  %11 = load ptr, ptr %10, align 8, !tbaa !228
  %12 = load ptr, ptr %4, align 8, !tbaa !8
  %13 = load ptr, ptr %5, align 8, !tbaa !3
  %14 = call ptr %11(ptr noundef %12, ptr noundef %13)
  store ptr %14, ptr %3, align 8
  br label %18

15:                                               ; preds = %2
  %16 = load ptr, ptr %5, align 8, !tbaa !3
  %17 = call noalias ptr @strdup(ptr noundef %16) #15
  store ptr %17, ptr %3, align 8
  br label %18

18:                                               ; preds = %15, %8
  %19 = load ptr, ptr %3, align 8
  ret ptr %19
}

; Function Attrs: inlinehint nounwind uwtable
define internal ptr @pmix_tma_realloc(ptr noundef %0, ptr noundef %1, i64 noundef %2) #1 {
  %4 = alloca ptr, align 8
  %5 = alloca ptr, align 8
  %6 = alloca ptr, align 8
  %7 = alloca i64, align 8
  store ptr %0, ptr %5, align 8, !tbaa !8
  store ptr %1, ptr %6, align 8, !tbaa !51
  store i64 %2, ptr %7, align 8, !tbaa !30
  %8 = load ptr, ptr %5, align 8, !tbaa !8
  %9 = icmp ne ptr null, %8
  br i1 %9, label %10, label %18

10:                                               ; preds = %3
  %11 = load ptr, ptr %5, align 8, !tbaa !8
  %12 = getelementptr inbounds nuw %struct.pmix_tma, ptr %11, i32 0, i32 2
  %13 = load ptr, ptr %12, align 8, !tbaa !227
  %14 = load ptr, ptr %5, align 8, !tbaa !8
  %15 = load ptr, ptr %6, align 8, !tbaa !51
  %16 = load i64, ptr %7, align 8, !tbaa !30
  %17 = call ptr %13(ptr noundef %14, ptr noundef %15, i64 noundef %16)
  store ptr %17, ptr %4, align 8
  br label %22

18:                                               ; preds = %3
  %19 = load ptr, ptr %6, align 8, !tbaa !51
  %20 = load i64, ptr %7, align 8, !tbaa !30
  %21 = call ptr @realloc(ptr noundef %19, i64 noundef %20) #18
  store ptr %21, ptr %4, align 8
  br label %22

22:                                               ; preds = %18, %10
  %23 = load ptr, ptr %4, align 8
  ret ptr %23
}

; Function Attrs: inlinehint nounwind uwtable
define internal i32 @pmix_bfrops_base_tma_argv_count(ptr noundef %0, ptr noundef %1) #1 {
  %3 = alloca i32, align 4
  %4 = alloca ptr, align 8
  %5 = alloca ptr, align 8
  %6 = alloca ptr, align 8
  %7 = alloca i32, align 4
  %8 = alloca i32, align 4
  store ptr %0, ptr %4, align 8, !tbaa !16
  store ptr %1, ptr %5, align 8, !tbaa !8
  call void @llvm.lifetime.start.p0(i64 8, ptr %6) #15
  call void @llvm.lifetime.start.p0(i64 4, ptr %7) #15
  %9 = load ptr, ptr %4, align 8, !tbaa !16
  %10 = icmp eq ptr null, %9
  br i1 %10, label %11, label %12

11:                                               ; preds = %2
  store i32 0, ptr %3, align 4
  store i32 1, ptr %8, align 4
  br label %26

12:                                               ; preds = %2
  store i32 0, ptr %7, align 4, !tbaa !12
  %13 = load ptr, ptr %4, align 8, !tbaa !16
  store ptr %13, ptr %6, align 8, !tbaa !16
  br label %14

14:                                               ; preds = %19, %12
  %15 = load ptr, ptr %6, align 8, !tbaa !16
  %16 = load ptr, ptr %15, align 8, !tbaa !3
  %17 = icmp ne ptr %16, null
  br i1 %17, label %18, label %24

18:                                               ; preds = %14
  br label %19

19:                                               ; preds = %18
  %20 = load i32, ptr %7, align 4, !tbaa !12
  %21 = add nsw i32 %20, 1
  store i32 %21, ptr %7, align 4, !tbaa !12
  %22 = load ptr, ptr %6, align 8, !tbaa !16
  %23 = getelementptr inbounds nuw ptr, ptr %22, i32 1
  store ptr %23, ptr %6, align 8, !tbaa !16
  br label %14, !llvm.loop !18

24:                                               ; preds = %14
  %25 = load i32, ptr %7, align 4, !tbaa !12
  store i32 %25, ptr %3, align 4
  store i32 1, ptr %8, align 4
  br label %26

26:                                               ; preds = %24, %11
  call void @llvm.lifetime.end.p0(i64 4, ptr %7) #15
  call void @llvm.lifetime.end.p0(i64 8, ptr %6) #15
  %27 = load i32, ptr %3, align 4
  ret i32 %27
}

; Function Attrs: inlinehint nounwind uwtable
define internal void @pmix_bfrops_base_tma_argv_free(ptr noundef %0, ptr noundef %1) #1 {
  %3 = alloca ptr, align 8
  %4 = alloca ptr, align 8
  %5 = alloca ptr, align 8
  store ptr %0, ptr %3, align 8, !tbaa !16
  store ptr %1, ptr %4, align 8, !tbaa !8
  %6 = load ptr, ptr %3, align 8, !tbaa !16
  %7 = icmp ne ptr null, %6
  br i1 %7, label %8, label %25

8:                                                ; preds = %2
  call void @llvm.lifetime.start.p0(i64 8, ptr %5) #15
  %9 = load ptr, ptr %3, align 8, !tbaa !16
  store ptr %9, ptr %5, align 8, !tbaa !16
  br label %10

10:                                               ; preds = %19, %8
  %11 = load ptr, ptr %5, align 8, !tbaa !16
  %12 = load ptr, ptr %11, align 8, !tbaa !3
  %13 = icmp ne ptr null, %12
  br i1 %13, label %15, label %14

14:                                               ; preds = %10
  call void @llvm.lifetime.end.p0(i64 8, ptr %5) #15
  br label %22

15:                                               ; preds = %10
  %16 = load ptr, ptr %4, align 8, !tbaa !8
  %17 = load ptr, ptr %5, align 8, !tbaa !16
  %18 = load ptr, ptr %17, align 8, !tbaa !3
  call void @pmix_tma_free(ptr noundef %16, ptr noundef %18)
  br label %19

19:                                               ; preds = %15
  %20 = load ptr, ptr %5, align 8, !tbaa !16
  %21 = getelementptr inbounds nuw ptr, ptr %20, i32 1
  store ptr %21, ptr %5, align 8, !tbaa !16
  br label %10, !llvm.loop !24

22:                                               ; preds = %14
  %23 = load ptr, ptr %4, align 8, !tbaa !8
  %24 = load ptr, ptr %3, align 8, !tbaa !16
  call void @pmix_tma_free(ptr noundef %23, ptr noundef %24)
  br label %25

25:                                               ; preds = %22, %2
  ret void
}

; Function Attrs: inlinehint nounwind uwtable
define internal i32 @pmix_bfrops_base_tma_argv_append_nosize(ptr noundef %0, ptr noundef %1, ptr noundef %2) #1 {
  %4 = alloca i32, align 4
  %5 = alloca ptr, align 8
  %6 = alloca ptr, align 8
  %7 = alloca ptr, align 8
  %8 = alloca i32, align 4
  %9 = alloca i32, align 4
  store ptr %0, ptr %5, align 8, !tbaa !20
  store ptr %1, ptr %6, align 8, !tbaa !3
  store ptr %2, ptr %7, align 8, !tbaa !8
  call void @llvm.lifetime.start.p0(i64 4, ptr %8) #15
  %10 = load ptr, ptr %5, align 8, !tbaa !20
  %11 = load ptr, ptr %10, align 8, !tbaa !16
  %12 = icmp eq ptr null, %11
  br i1 %12, label %13, label %28

13:                                               ; preds = %3
  %14 = load ptr, ptr %7, align 8, !tbaa !8
  %15 = call ptr @pmix_tma_malloc(ptr noundef %14, i64 noundef 16)
  %16 = load ptr, ptr %5, align 8, !tbaa !20
  store ptr %15, ptr %16, align 8, !tbaa !16
  %17 = load ptr, ptr %5, align 8, !tbaa !20
  %18 = load ptr, ptr %17, align 8, !tbaa !16
  %19 = icmp eq ptr null, %18
  br i1 %19, label %20, label %21

20:                                               ; preds = %13
  store i32 -29, ptr %4, align 4
  store i32 1, ptr %9, align 4
  br label %72

21:                                               ; preds = %13
  store i32 0, ptr %8, align 4, !tbaa !12
  %22 = load ptr, ptr %5, align 8, !tbaa !20
  %23 = load ptr, ptr %22, align 8, !tbaa !16
  %24 = getelementptr inbounds ptr, ptr %23, i64 0
  store ptr null, ptr %24, align 8, !tbaa !3
  %25 = load ptr, ptr %5, align 8, !tbaa !20
  %26 = load ptr, ptr %25, align 8, !tbaa !16
  %27 = getelementptr inbounds ptr, ptr %26, i64 1
  store ptr null, ptr %27, align 8, !tbaa !3
  br label %47

28:                                               ; preds = %3
  %29 = load ptr, ptr %5, align 8, !tbaa !20
  %30 = load ptr, ptr %29, align 8, !tbaa !16
  %31 = load ptr, ptr %7, align 8, !tbaa !8
  %32 = call i32 @pmix_bfrops_base_tma_argv_count(ptr noundef %30, ptr noundef %31)
  store i32 %32, ptr %8, align 4, !tbaa !12
  %33 = load ptr, ptr %7, align 8, !tbaa !8
  %34 = load ptr, ptr %5, align 8, !tbaa !20
  %35 = load ptr, ptr %34, align 8, !tbaa !16
  %36 = load i32, ptr %8, align 4, !tbaa !12
  %37 = add nsw i32 %36, 2
  %38 = sext i32 %37 to i64
  %39 = mul i64 %38, 8
  %40 = call ptr @pmix_tma_realloc(ptr noundef %33, ptr noundef %35, i64 noundef %39)
  %41 = load ptr, ptr %5, align 8, !tbaa !20
  store ptr %40, ptr %41, align 8, !tbaa !16
  %42 = load ptr, ptr %5, align 8, !tbaa !20
  %43 = load ptr, ptr %42, align 8, !tbaa !16
  %44 = icmp eq ptr null, %43
  br i1 %44, label %45, label %46

45:                                               ; preds = %28
  store i32 -29, ptr %4, align 4
  store i32 1, ptr %9, align 4
  br label %72

46:                                               ; preds = %28
  br label %47

47:                                               ; preds = %46, %21
  %48 = load ptr, ptr %7, align 8, !tbaa !8
  %49 = load ptr, ptr %6, align 8, !tbaa !3
  %50 = call ptr @pmix_tma_strdup(ptr noundef %48, ptr noundef %49)
  %51 = load ptr, ptr %5, align 8, !tbaa !20
  %52 = load ptr, ptr %51, align 8, !tbaa !16
  %53 = load i32, ptr %8, align 4, !tbaa !12
  %54 = sext i32 %53 to i64
  %55 = getelementptr inbounds ptr, ptr %52, i64 %54
  store ptr %50, ptr %55, align 8, !tbaa !3
  %56 = load ptr, ptr %5, align 8, !tbaa !20
  %57 = load ptr, ptr %56, align 8, !tbaa !16
  %58 = load i32, ptr %8, align 4, !tbaa !12
  %59 = sext i32 %58 to i64
  %60 = getelementptr inbounds ptr, ptr %57, i64 %59
  %61 = load ptr, ptr %60, align 8, !tbaa !3
  %62 = icmp eq ptr null, %61
  br i1 %62, label %63, label %64

63:                                               ; preds = %47
  store i32 -29, ptr %4, align 4
  store i32 1, ptr %9, align 4
  br label %72

64:                                               ; preds = %47
  %65 = load i32, ptr %8, align 4, !tbaa !12
  %66 = add nsw i32 %65, 1
  store i32 %66, ptr %8, align 4, !tbaa !12
  %67 = load ptr, ptr %5, align 8, !tbaa !20
  %68 = load ptr, ptr %67, align 8, !tbaa !16
  %69 = load i32, ptr %8, align 4, !tbaa !12
  %70 = sext i32 %69 to i64
  %71 = getelementptr inbounds ptr, ptr %68, i64 %70
  store ptr null, ptr %71, align 8, !tbaa !3
  store i32 0, ptr %4, align 4
  store i32 1, ptr %9, align 4
  br label %72

72:                                               ; preds = %64, %63, %45, %20
  call void @llvm.lifetime.end.p0(i64 4, ptr %8) #15
  %73 = load i32, ptr %4, align 4
  ret i32 %73
}

; Function Attrs: inlinehint nounwind uwtable
define internal ptr @pmix_tma_malloc(ptr noundef %0, i64 noundef %1) #1 {
  %3 = alloca ptr, align 8
  %4 = alloca ptr, align 8
  %5 = alloca i64, align 8
  store ptr %0, ptr %4, align 8, !tbaa !8
  store i64 %1, ptr %5, align 8, !tbaa !30
  %6 = load ptr, ptr %4, align 8, !tbaa !8
  %7 = icmp ne ptr null, %6
  br i1 %7, label %8, label %15

8:                                                ; preds = %2
  %9 = load ptr, ptr %4, align 8, !tbaa !8
  %10 = getelementptr inbounds nuw %struct.pmix_tma, ptr %9, i32 0, i32 0
  %11 = load ptr, ptr %10, align 8, !tbaa !226
  %12 = load ptr, ptr %4, align 8, !tbaa !8
  %13 = load i64, ptr %5, align 8, !tbaa !30
  %14 = call ptr %11(ptr noundef %12, i64 noundef %13)
  store ptr %14, ptr %3, align 8
  br label %18

15:                                               ; preds = %2
  %16 = load i64, ptr %5, align 8, !tbaa !30
  %17 = call noalias ptr @malloc(i64 noundef %16) #17
  store ptr %17, ptr %3, align 8
  br label %18

18:                                               ; preds = %15, %8
  %19 = load ptr, ptr %3, align 8
  ret ptr %19
}

; Function Attrs: inlinehint nounwind uwtable
define internal ptr @pmix_bfrops_base_tma_argv_copy(ptr noundef %0, ptr noundef %1) #1 {
  %3 = alloca ptr, align 8
  %4 = alloca ptr, align 8
  %5 = alloca ptr, align 8
  %6 = alloca ptr, align 8
  %7 = alloca i32, align 4
  store ptr %0, ptr %4, align 8, !tbaa !16
  store ptr %1, ptr %5, align 8, !tbaa !8
  %8 = load ptr, ptr %4, align 8, !tbaa !16
  %9 = icmp eq ptr null, %8
  br i1 %9, label %10, label %11

10:                                               ; preds = %2
  store ptr null, ptr %3, align 8
  br label %35

11:                                               ; preds = %2
  call void @llvm.lifetime.start.p0(i64 8, ptr %6) #15
  %12 = load ptr, ptr %5, align 8, !tbaa !8
  %13 = call ptr @pmix_tma_malloc(ptr noundef %12, i64 noundef 8)
  store ptr %13, ptr %6, align 8, !tbaa !16
  %14 = load ptr, ptr %6, align 8, !tbaa !16
  %15 = getelementptr inbounds ptr, ptr %14, i64 0
  store ptr null, ptr %15, align 8, !tbaa !3
  br label %16

16:                                               ; preds = %29, %11
  %17 = load ptr, ptr %4, align 8, !tbaa !16
  %18 = load ptr, ptr %17, align 8, !tbaa !3
  %19 = icmp ne ptr null, %18
  br i1 %19, label %20, label %32

20:                                               ; preds = %16
  %21 = load ptr, ptr %4, align 8, !tbaa !16
  %22 = load ptr, ptr %21, align 8, !tbaa !3
  %23 = load ptr, ptr %5, align 8, !tbaa !8
  %24 = call i32 @pmix_bfrops_base_tma_argv_append_nosize(ptr noundef %6, ptr noundef %22, ptr noundef %23)
  %25 = icmp ne i32 0, %24
  br i1 %25, label %26, label %29

26:                                               ; preds = %20
  %27 = load ptr, ptr %6, align 8, !tbaa !16
  %28 = load ptr, ptr %5, align 8, !tbaa !8
  call void @pmix_bfrops_base_tma_argv_free(ptr noundef %27, ptr noundef %28)
  store ptr null, ptr %3, align 8
  store i32 1, ptr %7, align 4
  br label %34

29:                                               ; preds = %20
  %30 = load ptr, ptr %4, align 8, !tbaa !16
  %31 = getelementptr inbounds nuw ptr, ptr %30, i32 1
  store ptr %31, ptr %4, align 8, !tbaa !16
  br label %16, !llvm.loop !36

32:                                               ; preds = %16
  %33 = load ptr, ptr %6, align 8, !tbaa !16
  store ptr %33, ptr %3, align 8
  store i32 1, ptr %7, align 4
  br label %34

34:                                               ; preds = %32, %26
  call void @llvm.lifetime.end.p0(i64 8, ptr %6) #15
  br label %35

35:                                               ; preds = %34, %10
  %36 = load ptr, ptr %3, align 8
  ret ptr %36
}

; Function Attrs: nounwind uwtable
define ptr @PMIx_Argv_copy(ptr noundef %0) #0 {
  %2 = alloca ptr, align 8
  store ptr %0, ptr %2, align 8, !tbaa !16
  %3 = load ptr, ptr %2, align 8, !tbaa !16
  %4 = call ptr @pmix_bfrops_base_tma_argv_copy(ptr noundef %3, ptr noundef null)
  ret ptr %4
}