; Function Attrs: nounwind uwtable
define noalias noundef ptr @PMIx_Argv_copy(ptr noundef readonly captures(address_is_null) %0) local_unnamed_addr #6 {
  %2 = icmp eq ptr %0, null
  br i1 %2, label %pmix_bfrops_base_tma_argv_copy.exit, label %3

3:                                                ; preds = %1
  %4 = tail call noalias noundef dereferenceable_or_null(8) ptr @malloc(i64 noundef 8) #45
  store ptr null, ptr %4, align 8, !tbaa !12
  %5 = load ptr, ptr %0, align 8, !tbaa !12
  %.not12.i = icmp eq ptr %5, null
  br i1 %.not12.i, label %pmix_bfrops_base_tma_argv_copy.exit, label %.preheader.i.i.i

.preheader.i.ithread-pre-split.i:                 ; preds = %25
  %.pr.i = load ptr, ptr %14, align 8, !tbaa !12
  br label %.preheader.i.i.i

.preheader.i.i.i:                                 ; preds = %3, %.preheader.i.ithread-pre-split.i
  %6 = phi ptr [ %.pr.i, %.preheader.i.ithread-pre-split.i ], [ null, %3 ]
  %7 = phi ptr [ %28, %.preheader.i.ithread-pre-split.i ], [ %5, %3 ]
  %.0814.i = phi ptr [ %27, %.preheader.i.ithread-pre-split.i ], [ %0, %3 ]
  %.0313.i = phi ptr [ %14, %.preheader.i.ithread-pre-split.i ], [ %4, %3 ]
  %.not1.i.i.i = icmp eq ptr %6, null
  br i1 %.not1.i.i.i, label %pmix_bfrops_base_tma_argv_count.exit.i.i, label %.lr.ph.i.i.i

.lr.ph.i.i.i:                                     ; preds = %.preheader.i.i.i, %.lr.ph.i.i.i
  %.03.i.i.i = phi i32 [ %8, %.lr.ph.i.i.i ], [ 0, %.preheader.i.i.i ]
  %.062.i.i.i = phi ptr [ %9, %.lr.ph.i.i.i ], [ %.0313.i, %.preheader.i.i.i ]
  %8 = add nuw nsw i32 %.03.i.i.i, 1
  %9 = getelementptr inbounds nuw i8, ptr %.062.i.i.i, i64 8
  %10 = load ptr, ptr %9, align 8, !tbaa !12
  %.not.i.i.i = icmp eq ptr %10, null
  br i1 %.not.i.i.i, label %pmix_bfrops_base_tma_argv_count.exit.i.i, label %.lr.ph.i.i.i, !llvm.loop !15

pmix_bfrops_base_tma_argv_count.exit.i.i:         ; preds = %.lr.ph.i.i.i, %.preheader.i.i.i
  %.07.i.i.i = phi i32 [ 0, %.preheader.i.i.i ], [ %8, %.lr.ph.i.i.i ]
  %11 = add nsw i32 %.07.i.i.i, 2
  %12 = sext i32 %11 to i64
  %13 = shl nsw i64 %12, 3
  %14 = tail call noalias noundef ptr @realloc(ptr noundef nonnull %.0313.i, i64 noundef %13) #43
  %15 = icmp eq ptr %14, null
  br i1 %15, label %pmix_bfrops_base_tma_argv_copy.exit, label %16

16:                                               ; preds = %pmix_bfrops_base_tma_argv_count.exit.i.i
  %17 = tail call noalias ptr @strdup(ptr noundef nonnull readonly %7) #44
  %18 = sext i32 %.07.i.i.i to i64
  %19 = getelementptr inbounds ptr, ptr %14, i64 %18
  store ptr %17, ptr %19, align 8, !tbaa !12
  %20 = icmp eq ptr %17, null
  br i1 %20, label %.preheader.i.i, label %25

.preheader.i.i:                                   ; preds = %16
  %21 = load ptr, ptr %14, align 8, !tbaa !12
  %.not101.i.i = icmp eq ptr %21, null
  br i1 %.not101.i.i, label %._crit_edge.i.i, label %.lr.ph.i.i

._crit_edge.i.i:                                  ; preds = %.lr.ph.i.i, %.preheader.i.i
  tail call void @free(ptr noundef nonnull %14) #44
  br label %pmix_bfrops_base_tma_argv_copy.exit

.lr.ph.i.i:                                       ; preds = %.preheader.i.i, %.lr.ph.i.i
  %22 = phi ptr [ %24, %.lr.ph.i.i ], [ %21, %.preheader.i.i ]
  %.02.i.i = phi ptr [ %23, %.lr.ph.i.i ], [ %14, %.preheader.i.i ]
  tail call void @free(ptr noundef nonnull %22) #44
  %23 = getelementptr inbounds nuw i8, ptr %.02.i.i, i64 8
  %24 = load ptr, ptr %23, align 8, !tbaa !12
  %.not10.i.i = icmp eq ptr %24, null
  br i1 %.not10.i.i, label %._crit_edge.i.i, label %.lr.ph.i.i, !llvm.loop !19

25:                                               ; preds = %16
  %26 = getelementptr i8, ptr %19, i64 8
  store ptr null, ptr %26, align 8, !tbaa !12
  %27 = getelementptr inbounds nuw i8, ptr %.0814.i, i64 8
  %28 = load ptr, ptr %27, align 8, !tbaa !12
  %.not.i = icmp eq ptr %28, null
  br i1 %.not.i, label %pmix_bfrops_base_tma_argv_copy.exit, label %.preheader.i.ithread-pre-split.i, !llvm.loop !23

pmix_bfrops_base_tma_argv_copy.exit:              ; preds = %pmix_bfrops_base_tma_argv_count.exit.i.i, %25, %1, %3, %._crit_edge.i.i
  %.0.i = phi ptr [ null, %1 ], [ null, %._crit_edge.i.i ], [ %4, %3 ], [ null, %pmix_bfrops_base_tma_argv_count.exit.i.i ], [ %14, %25 ]
  ret ptr %.0.i
}